Certificate:
    Data:
        Version: 3 (0x2)
        Serial Number: 9621183028388784625 (0x85854efd362169f1)
    Signature Algorithm: sha1WithRSAEncryption
        Issuer: C=ru, ST=msk, O=mephi, OU=kaf36, CN=CA-example/emailAddress=CA-example@example.ru
        Validity
            Not Before: Feb 21 05:57:11 2014 GMT
            Not After : Feb 20 05:57:11 2017 GMT
        Subject: C=ru, ST=msk, O=mephi, OU=kaf36, CN=CA-example/emailAddress=CA-example@example.ru
        Subject Public Key Info:
            Public Key Algorithm: rsaEncryption
                Public-Key: (2048 bit)
                Modulus:
                    00:b7:95:bf:31:6c:02:b6:28:4e:67:67:b8:6d:03:
                    cb:06:68:b8:95:cf:00:b4:df:ee:9d:20:4c:0e:64:
                    05:64:38:d8:5f:ec:b1:89:94:3a:32:75:f7:84:89:
                    ca:02:1d:52:be:dd:e8:cc:d1:c8:2d:ad:af:f2:2f:
                    a4:62:ad:b7:40:96:0b:33:65:b6:36:a6:78:81:b6:
                    38:d9:8b:12:7d:d7:7f:3c:b0:86:c2:f0:57:06:1a:
                    10:ee:18:cc:75:03:ef:35:41:80:d6:2a:ed:cb:8b:
                    53:33:20:d3:c2:0c:5f:92:62:cc:58:d7:44:b1:ca:
                    43:f0:4c:30:f7:87:d5:3c:86:91:9b:2a:73:a1:f6:
                    5e:06:15:b5:0f:30:1d:83:47:28:ae:c7:26:07:e9:
                    b3:29:ce:91:9d:d6:e3:b2:45:b5:2f:3c:9a:e8:42:
                    77:6d:55:f7:34:cb:90:87:b3:d4:4f:b4:3c:43:eb:
                    2c:cb:70:b6:3a:37:2e:5c:65:ca:0a:1c:37:01:65:
                    f6:d4:66:eb:47:67:f3:59:1e:38:f7:38:73:c8:b1:
                    41:a0:4c:48:f2:68:07:8f:f0:91:af:b6:12:30:cd:
                    fd:98:0d:ca:5f:a4:a9:14:4f:e9:90:53:43:05:88:
                    81:4c:84:6c:cb:66:76:58:20:c3:fe:35:b9:05:95:
                    7e:a7
                Exponent: 65537 (0x10001)
        X509v3 extensions:
            X509v3 Subject Key Identifier: 
                EF:98:C2:C2:83:93:9F:1C:13:E6:09:81:0F:44:C0:10:5E:DE:B9:EF
            X509v3 Authority Key Identifier: 
                keyid:EF:98:C2:C2:83:93:9F:1C:13:E6:09:81:0F:44:C0:10:5E:DE:B9:EF

            X509v3 Basic Constraints: 
                CA:TRUE
    Signature Algorithm: sha1WithRSAEncryption
         6e:cb:87:24:dd:e7:db:f8:4f:2c:ac:8f:80:a9:3a:bc:2b:ef:
         7c:b9:1d:54:04:2b:ea:83:03:5e:03:31:29:96:9f:c6:11:84:
         d1:2b:e5:7c:a7:ae:2f:e0:23:32:20:51:91:96:72:68:87:26:
         ad:fb:a1:c0:cf:2d:18:fb:54:4f:65:7a:c3:9c:30:48:03:ed:
         2b:ab:d3:02:75:8c:43:74:95:31:ff:0e:64:93:9b:87:74:3c:
         49:28:91:77:a9:68:04:2e:66:a3:09:aa:1e:17:ed:60:44:32:
         ee:ac:34:14:e6:59:58:b7:b8:cb:87:3f:93:78:79:cb:c8:57:
         6a:70:00:ab:d0:90:07:61:b3:dd:95:92:df:ac:b7:66:80:07:
         fb:a5:49:ff:be:ba:0d:e8:7b:9c:b1:6b:21:2a:73:c9:23:f0:
         ea:ff:f8:b6:26:09:da:2f:8c:56:4a:26:8e:d7:35:92:7a:95:
         16:e1:f1:34:eb:8d:50:6f:ae:af:cc:c9:7c:50:9b:12:be:41:
         a7:11:33:31:e4:7f:1c:84:62:cd:8e:65:0e:8c:a2:95:65:60:
         67:40:77:39:65:ac:33:be:81:31:dc:98:27:48:f1:93:de:89:
         c1:f7:e0:50:72:a0:13:1b:e6:76:b2:64:f9:d5:cc:11:8f:e0:
         d8:b3:5f:29
-----BEGIN CERTIFICATE-----
MIIDvzCCAqegAwIBAgIJAIWFTv02IWnxMA0GCSqGSIb3DQEBBQUAMHYxCzAJBgNV
BAYTAnJ1MQwwCgYDVQQIDANtc2sxDjAMBgNVBAoMBW1lcGhpMQ4wDAYDVQQLDAVr
YWYzNjETMBEGA1UEAwwKQ0EtZXhhbXBsZTEkMCIGCSqGSIb3DQEJARYVQ0EtZXhh
bXBsZUBleGFtcGxlLnJ1MB4XDTE0MDIyMTA1NTcxMVoXDTE3MDIyMDA1NTcxMVow
djELMAkGA1UEBhMCcnUxDDAKBgNVBAgMA21zazEOMAwGA1UECgwFbWVwaGkxDjAM
BgNVBAsMBWthZjM2MRMwEQYDVQQDDApDQS1leGFtcGxlMSQwIgYJKoZIhvcNAQkB
FhVDQS1leGFtcGxlQGV4YW1wbGUucnUwggEiMA0GCSqGSIb3DQEBAQUAA4IBDwAw
ggEKAoIBAQC3lb8xbAK2KE5nZ7htA8sGaLiVzwC03+6dIEwOZAVkONhf7LGJlDoy
dfeEicoCHVK+3ejM0cgtra/yL6RirbdAlgszZbY2pniBtjjZixJ91388sIbC8FcG
GhDuGMx1A+81QYDWKu3Li1MzINPCDF+SYsxY10SxykPwTDD3h9U8hpGbKnOh9l4G
FbUPMB2DRyiuxyYH6bMpzpGd1uOyRbUvPJroQndtVfc0y5CHs9RPtDxD6yzLcLY6
Ny5cZcoKHDcBZfbUZutHZ/NZHjj3OHPIsUGgTEjyaAeP8JGvthIwzf2YDcpfpKkU
T+mQU0MFiIFMhGzLZnZYIMP+NbkFlX6nAgMBAAGjUDBOMB0GA1UdDgQWBBTvmMLC
g5OfHBPmCYEPRMAQXt657zAfBgNVHSMEGDAWgBTvmMLCg5OfHBPmCYEPRMAQXt65
7zAMBgNVHRMEBTADAQH/MA0GCSqGSIb3DQEBBQUAA4IBAQBuy4ck3efb+E8srI+A
qTq8K+98uR1UBCvqgwNeAzEplp/GEYTRK+V8p64v4CMyIFGRlnJohyat+6HAzy0Y
+1RPZXrDnDBIA+0rq9MCdYxDdJUx/w5kk5uHdDxJKJF3qWgELmajCaoeF+1gRDLu
rDQU5llYt7jLhz+TeHnLyFdqcACr0JAHYbPdlZLfrLdmgAf7pUn/vroN6HucsWsh
KnPJI/Dq//i2JgnaL4xWSiaO1zWSepUW4fE0641Qb66vzMl8UJsSvkGnETMx5H8c
hGLNjmUOjKKVZWBnQHc5ZawzvoEx3JgnSPGT3onB9+BQcqATG+Z2smT51cwRj+DY
s18p
-----END CERTIFICATE-----
